target datalayout = "e-m:e-p270:32:32-p271:32:32-p272:64:64-i64:64-i128:128-f80:128-n8:16:32:64-S128"
target triple = "x86_64-pc-linux-gnu"

%class.btVector3 = type { [4 x float] }
%class.btAlignedObjectArray.0 = type <{ [4 x i8], i32, i32, [4 x i8], ptr, i8, [7 x i8] }>
%class.btAlignedObjectArray.2 = type <{ [4 x i8], i32, i32, [4 x i8], ptr, i8, [7 x i8] }>
%class.btDeformableMultiBodyDynamicsWorld = type { %class.btMultiBodyDynamicsWorld, ptr, %class.btAlignedObjectArray.24, i32, i8, i8, i8, %struct.btSoftBodyWorldInfo, float, i32, i8, i8, i8, ptr, ptr }
%class.btMultiBodyDynamicsWorld = type { %class.btDiscreteDynamicsWorld.base, [4 x i8], %class.btAlignedObjectArray.14, %class.btAlignedObjectArray.16, %class.btAlignedObjectArray.16, ptr, ptr, %class.btAlignedObjectArray.18, %class.btAlignedObjectArray.2, %class.btAlignedObjectArray.18, %class.btAlignedObjectArray.2, %class.btAlignedObjectArray.20, %class.btAlignedObjectArray.2, %class.btAlignedObjectArray.22 }
%class.btDiscreteDynamicsWorld.base = type <{ %class.btDynamicsWorld, %class.btAlignedObjectArray.6, ptr, ptr, ptr, %class.btAlignedObjectArray.6, %class.btAlignedObjectArray.8, %class.btVector3, float, float, i8, i8, i8, i8, [4 x i8], %class.btAlignedObjectArray.10, i32, i8, [3 x i8], %class.btAlignedObjectArray.12, %class.btSpinMutex }>
%class.btDynamicsWorld = type { %class.btCollisionWorld.base, ptr, ptr, ptr, %struct.btContactSolverInfo }
%class.btCollisionWorld.base = type <{ ptr, %class.btAlignedObjectArray.4, ptr, %struct.btDispatcherInfo, ptr, ptr, i8 }>
%class.btAlignedObjectArray.4 = type <{ [4 x i8], i32, i32, [4 x i8], ptr, i8, [7 x i8] }>
%struct.btDispatcherInfo = type <{ float, i32, i32, float, i8, [7 x i8], ptr, i8, i8, i8, i8, float, i8, [3 x i8], float, i8, [7 x i8] }>
%struct.btContactSolverInfo = type { %struct.btContactSolverInfoData }
%struct.btContactSolverInfoData = type { float, float, float, float, float, i32, float, float, float, float, float, float, float, float, float, float, i32, float, float, float, float, float, i32, i32, i32, float, float, float, float, i8, i8, i32, i32 }
%class.btAlignedObjectArray.6 = type <{ [4 x i8], i32, i32, [4 x i8], ptr, i8, [7 x i8] }>
%class.btAlignedObjectArray.8 = type <{ [4 x i8], i32, i32, [4 x i8], ptr, i8, [7 x i8] }>
%class.btAlignedObjectArray.10 = type <{ [4 x i8], i32, i32, [4 x i8], ptr, i8, [7 x i8] }>
%class.btAlignedObjectArray.12 = type <{ [4 x i8], i32, i32, [4 x i8], ptr, i8, [7 x i8] }>
%class.btSpinMutex = type { i32 }
%class.btAlignedObjectArray.14 = type <{ [4 x i8], i32, i32, [4 x i8], ptr, i8, [7 x i8] }>
%class.btAlignedObjectArray.16 = type <{ [4 x i8], i32, i32, [4 x i8], ptr, i8, [7 x i8] }>
%class.btAlignedObjectArray.18 = type <{ [4 x i8], i32, i32, [4 x i8], ptr, i8, [7 x i8] }>
%class.btAlignedObjectArray.20 = type <{ [4 x i8], i32, i32, [4 x i8], ptr, i8, [7 x i8] }>
%class.btAlignedObjectArray.22 = type <{ [4 x i8], i32, i32, [4 x i8], ptr, i8, [7 x i8] }>
%class.btAlignedObjectArray.24 = type <{ [4 x i8], i32, i32, [4 x i8], ptr, i8, [7 x i8] }>
%struct.btSoftBodyWorldInfo = type { float, float, float, float, %class.btVector3, ptr, ptr, %class.btVector3, %struct.btSparseSdf }
%struct.btSparseSdf = type { %class.btAlignedObjectArray.26, float, float, i32, i32, i32, i32, i32, [4 x i8] }
%class.btAlignedObjectArray.26 = type <{ [4 x i8], i32, i32, [4 x i8], ptr, i8, [7 x i8] }>
%class.btMatrix3x3 = type { [3 x %class.btVector3] }
%class.btTransform = type { %class.btMatrix3x3, %class.btVector3 }
%class.btSoftBody = type { %class.btCollisionObject.base, [4 x i8], %class.btAlignedObjectArray.38, ptr, %"struct.btSoftBody::Config", %"struct.btSoftBody::SolverState", [4 x i8], %"struct.btSoftBody::Pose", ptr, ptr, %class.btAlignedObjectArray.44, %class.btAlignedObjectArray.46, %class.btAlignedObjectArray.48, %class.btAlignedObjectArray.50, %class.btAlignedObjectArray.52, %class.btAlignedObjectArray.54, %class.btAlignedObjectArray.56, %class.btAlignedObjectArray.58, %class.btAlignedObjectArray.58, %class.btAlignedObjectArray.60, %class.btAlignedObjectArray.62, %class.btAlignedObjectArray.64, %class.btAlignedObjectArray.66, %class.btAlignedObjectArray.68, %class.btAlignedObjectArray.70, %class.btAlignedObjectArray.68, %class.btAlignedObjectArray.72, %class.btAlignedObjectArray.74, %class.btAlignedObjectArray.76, float, [2 x %class.btVector3], i8, %struct.btDbvt, %struct.btDbvt, ptr, %struct.btDbvt, %class.btAlignedObjectArray.80, float, float, float, [4 x i8], %class.btAlignedObjectArray.2, float, float, i8, [7 x i8], %class.btAlignedObjectArray.2, %class.btAlignedObjectArray.82, %class.btAlignedObjectArray.84, %class.btAlignedObjectArray.20, i8, i8, [6 x i8], %class.btAlignedObjectArray.86, %class.btVector3, float, i8, [3 x i8], %class.btAlignedObjectArray.0 }
%class.btCollisionObject.base = type <{ ptr, %class.btTransform, %class.btTransform, %class.btVector3, %class.btVector3, %class.btVector3, i32, float, ptr, ptr, ptr, ptr, i32, i32, i32, i32, i32, float, float, float, float, float, float, float, i32, [4 x i8], ptr, i32, i32, i32, float, float, float, i32, [4 x i8], %class.btAlignedObjectArray.38, i32, %class.btVector3 }>
%class.btAlignedObjectArray.38 = type <{ [4 x i8], i32, i32, [4 x i8], ptr, i8, [7 x i8] }>
%"struct.btSoftBody::Config" = type { i32, float, float, float, float, float, float, float, float, float, float, float, float, float, float, float, float, float, float, float, float, i32, i32, i32, i32, i32, %class.btAlignedObjectArray.40, %class.btAlignedObjectArray.42, %class.btAlignedObjectArray.42, float, float }
%class.btAlignedObjectArray.40 = type <{ [4 x i8], i32, i32, [4 x i8], ptr, i8, [7 x i8] }>
%class.btAlignedObjectArray.42 = type <{ [4 x i8], i32, i32, [4 x i8], ptr, i8, [7 x i8] }>
%"struct.btSoftBody::SolverState" = type { float, float, float, float, float }
%"struct.btSoftBody::Pose" = type { i8, i8, float, %class.btAlignedObjectArray.2, %class.btAlignedObjectArray.20, %class.btVector3, %class.btMatrix3x3, %class.btMatrix3x3, %class.btMatrix3x3 }
%class.btAlignedObjectArray.44 = type <{ [4 x i8], i32, i32, [4 x i8], ptr, i8, [7 x i8] }>
%class.btAlignedObjectArray.46 = type <{ [4 x i8], i32, i32, [4 x i8], ptr, i8, [7 x i8] }>
%class.btAlignedObjectArray.48 = type <{ [4 x i8], i32, i32, [4 x i8], ptr, i8, [7 x i8] }>
%class.btAlignedObjectArray.50 = type <{ [4 x i8], i32, i32, [4 x i8], ptr, i8, [7 x i8] }>
%class.btAlignedObjectArray.52 = type <{ [4 x i8], i32, i32, [4 x i8], ptr, i8, [7 x i8] }>
%class.btAlignedObjectArray.54 = type <{ [4 x i8], i32, i32, [4 x i8], ptr, i8, [7 x i8] }>
%class.btAlignedObjectArray.56 = type <{ [4 x i8], i32, i32, [4 x i8], ptr, i8, [7 x i8] }>
%class.btAlignedObjectArray.58 = type <{ [4 x i8], i32, i32, [4 x i8], ptr, i8, [7 x i8] }>
%class.btAlignedObjectArray.60 = type <{ [4 x i8], i32, i32, [4 x i8], ptr, i8, [7 x i8] }>
%class.btAlignedObjectArray.62 = type <{ [4 x i8], i32, i32, [4 x i8], ptr, i8, [7 x i8] }>
%class.btAlignedObjectArray.64 = type <{ [4 x i8], i32, i32, [4 x i8], ptr, i8, [7 x i8] }>
%class.btAlignedObjectArray.66 = type <{ [4 x i8], i32, i32, [4 x i8], ptr, i8, [7 x i8] }>
%class.btAlignedObjectArray.70 = type <{ [4 x i8], i32, i32, [4 x i8], ptr, i8, [7 x i8] }>
%class.btAlignedObjectArray.68 = type <{ [4 x i8], i32, i32, [4 x i8], ptr, i8, [7 x i8] }>
%class.btAlignedObjectArray.72 = type <{ [4 x i8], i32, i32, [4 x i8], ptr, i8, [7 x i8] }>
%class.btAlignedObjectArray.74 = type <{ [4 x i8], i32, i32, [4 x i8], ptr, i8, [7 x i8] }>
%class.btAlignedObjectArray.76 = type <{ [4 x i8], i32, i32, [4 x i8], ptr, i8, [7 x i8] }>
%struct.btDbvt = type { ptr, ptr, i32, i32, i32, [4 x i8], %class.btAlignedObjectArray.78 }
%class.btAlignedObjectArray.78 = type <{ [4 x i8], i32, i32, [4 x i8], ptr, i8, [7 x i8] }>
%class.btAlignedObjectArray.80 = type <{ [4 x i8], i32, i32, [4 x i8], ptr, i8, [7 x i8] }>
%class.btAlignedObjectArray.82 = type <{ [4 x i8], i32, i32, [4 x i8], ptr, i8, [7 x i8] }>
%class.btAlignedObjectArray.84 = type <{ [4 x i8], i32, i32, [4 x i8], ptr, i8, [7 x i8] }>
%class.btAlignedObjectArray.86 = type <{ [4 x i8], i32, i32, [4 x i8], ptr, i8, [7 x i8] }>

; Function Attrs: inlinehint mustprogress nounwind uwtable
define linkonce_odr dso_local noundef nonnull align 8 dereferenceable(8) ptr @_ZN20btAlignedObjectArrayIP10btSoftBodyEixEi(ptr noundef nonnull align 8 dereferenceable(25) %0, i32 noundef %1) #6 comdat align 2 {
  %3 = alloca ptr, align 8
  %4 = alloca i32, align 4
  store ptr %0, ptr %3, align 8, !tbaa !142
  store i32 %1, ptr %4, align 4, !tbaa !9
  %5 = load ptr, ptr %3, align 8
  %6 = getelementptr inbounds nuw %class.btAlignedObjectArray.24, ptr %5, i32 0, i32 4
  %7 = load ptr, ptr %6, align 8, !tbaa !319
  %8 = load i32, ptr %4, align 4, !tbaa !9
  %9 = sext i32 %8 to i64
  %10 = getelementptr inbounds ptr, ptr %7, i64 %9
  ret ptr %10
}

; Function Attrs: inlinehint mustprogress nounwind uwtable
define linkonce_odr dso_local noundef i32 @_ZNK20btAlignedObjectArrayIP10btSoftBodyE4sizeEv(ptr noundef nonnull align 8 dereferenceable(25) %0) #6 comdat align 2 {
  %2 = alloca ptr, align 8
  store ptr %0, ptr %2, align 8, !tbaa !142
  %3 = load ptr, ptr %2, align 8
  %4 = getelementptr inbounds nuw %class.btAlignedObjectArray.24, ptr %3, i32 0, i32 1
  %5 = load i32, ptr %4, align 4, !tbaa !318
  ret i32 %5
}

; Function Attrs: mustprogress uwtable
define dso_local void @_ZN34btDeformableMultiBodyDynamicsWorld35performDeformableCollisionDetectionEv(ptr noundef nonnull align 8 dereferenceable(1056) %0) #7 align 2 {
  %2 = alloca ptr, align 8
  %3 = alloca i32, align 4
  %4 = alloca i32, align 4
  %5 = alloca i32, align 4
  %6 = alloca i32, align 4
  %7 = alloca i32, align 4
  store ptr %0, ptr %2, align 8, !tbaa !58
  %8 = load ptr, ptr %2, align 8
  call void @llvm.lifetime.start.p0(i64 4, ptr %3) #4
  store i32 0, ptr %3, align 4, !tbaa !9
  br label %9

9:                                                ; preds = %21, %1
  %10 = load i32, ptr %3, align 4, !tbaa !9
  %11 = getelementptr inbounds nuw %class.btDeformableMultiBodyDynamicsWorld, ptr %8, i32 0, i32 2
  %12 = call noundef i32 @_ZNK20btAlignedObjectArrayIP10btSoftBodyE4sizeEv(ptr noundef nonnull align 8 dereferenceable(25) %11)
  %13 = icmp slt i32 %10, %12
  br i1 %13, label %15, label %14

14:                                               ; preds = %9
  call void @llvm.lifetime.end.p0(i64 4, ptr %3) #4
  br label %24

15:                                               ; preds = %9
  %16 = getelementptr inbounds nuw %class.btDeformableMultiBodyDynamicsWorld, ptr %8, i32 0, i32 2
  %17 = load i32, ptr %3, align 4, !tbaa !9
  %18 = call noundef nonnull align 8 dereferenceable(8) ptr @_ZN20btAlignedObjectArrayIP10btSoftBodyEixEi(ptr noundef nonnull align 8 dereferenceable(25) %16, i32 noundef %17)
  %19 = load ptr, ptr %18, align 8, !tbaa !215
  %20 = getelementptr inbounds nuw %class.btSoftBody, ptr %19, i32 0, i32 51
  store i8 1, ptr %20, align 1, !tbaa !217
  br label %21

21:                                               ; preds = %15
  %22 = load i32, ptr %3, align 4, !tbaa !9
  %23 = add nsw i32 %22, 1
  store i32 %23, ptr %3, align 4, !tbaa !9
  br label %9, !llvm.loop !301

24:                                               ; preds = %14
  call void @llvm.lifetime.start.p0(i64 4, ptr %4) #4
  store i32 0, ptr %4, align 4, !tbaa !9
  br label %25

25:                                               ; preds = %52, %24
  %26 = load i32, ptr %4, align 4, !tbaa !9
  %27 = getelementptr inbounds nuw %class.btDeformableMultiBodyDynamicsWorld, ptr %8, i32 0, i32 2
  %28 = call noundef i32 @_ZNK20btAlignedObjectArrayIP10btSoftBodyE4sizeEv(ptr noundef nonnull align 8 dereferenceable(25) %27)
  %29 = icmp slt i32 %26, %28
  br i1 %29, label %31, label %30

30:                                               ; preds = %25
  store i32 5, ptr %5, align 4
  call void @llvm.lifetime.end.p0(i64 4, ptr %4) #4
  br label %55

31:                                               ; preds = %25
  call void @llvm.lifetime.start.p0(i64 4, ptr %6) #4
  %32 = load i32, ptr %4, align 4, !tbaa !9
  store i32 %32, ptr %6, align 4, !tbaa !9
  br label %33

33:                                               ; preds = %48, %31
  %34 = load i32, ptr %6, align 4, !tbaa !9
  %35 = getelementptr inbounds nuw %class.btDeformableMultiBodyDynamicsWorld, ptr %8, i32 0, i32 2
  %36 = call noundef i32 @_ZNK20btAlignedObjectArrayIP10btSoftBodyE4sizeEv(ptr noundef nonnull align 8 dereferenceable(25) %35)
  %37 = icmp slt i32 %34, %36
  br i1 %37, label %39, label %38

38:                                               ; preds = %33
  store i32 8, ptr %5, align 4
  call void @llvm.lifetime.end.p0(i64 4, ptr %6) #4
  br label %51

39:                                               ; preds = %33
  %40 = getelementptr inbounds nuw %class.btDeformableMultiBodyDynamicsWorld, ptr %8, i32 0, i32 2
  %41 = load i32, ptr %4, align 4, !tbaa !9
  %42 = call noundef nonnull align 8 dereferenceable(8) ptr @_ZN20btAlignedObjectArrayIP10btSoftBodyEixEi(ptr noundef nonnull align 8 dereferenceable(25) %40, i32 noundef %41)
  %43 = load ptr, ptr %42, align 8, !tbaa !215
  %44 = getelementptr inbounds nuw %class.btDeformableMultiBodyDynamicsWorld, ptr %8, i32 0, i32 2
  %45 = load i32, ptr %6, align 4, !tbaa !9
  %46 = call noundef nonnull align 8 dereferenceable(8) ptr @_ZN20btAlignedObjectArrayIP10btSoftBodyEixEi(ptr noundef nonnull align 8 dereferenceable(25) %44, i32 noundef %45)
  %47 = load ptr, ptr %46, align 8, !tbaa !215
  call void @_ZN10btSoftBody23defaultCollisionHandlerEPS_(ptr noundef nonnull align 8 dereferenceable(2064) %43, ptr noundef %47)
  br label %48

48:                                               ; preds = %39
  %49 = load i32, ptr %6, align 4, !tbaa !9
  %50 = add nsw i32 %49, 1
  store i32 %50, ptr %6, align 4, !tbaa !9
  br label %33, !llvm.loop !302

51:                                               ; preds = %38
  br label %52

52:                                               ; preds = %51
  %53 = load i32, ptr %4, align 4, !tbaa !9
  %54 = add nsw i32 %53, 1
  store i32 %54, ptr %4, align 4, !tbaa !9
  br label %25, !llvm.loop !303

55:                                               ; preds = %30
  call void @llvm.lifetime.start.p0(i64 4, ptr %7) #4
  store i32 0, ptr %7, align 4, !tbaa !9
  br label %56

56:                                               ; preds = %68, %55
  %57 = load i32, ptr %7, align 4, !tbaa !9
  %58 = getelementptr inbounds nuw %class.btDeformableMultiBodyDynamicsWorld, ptr %8, i32 0, i32 2
  %59 = call noundef i32 @_ZNK20btAlignedObjectArrayIP10btSoftBodyE4sizeEv(ptr noundef nonnull align 8 dereferenceable(25) %58)
  %60 = icmp slt i32 %57, %59
  br i1 %60, label %62, label %61

61:                                               ; preds = %56
  store i32 11, ptr %5, align 4
  call void @llvm.lifetime.end.p0(i64 4, ptr %7) #4
  br label %71

62:                                               ; preds = %56
  %63 = getelementptr inbounds nuw %class.btDeformableMultiBodyDynamicsWorld, ptr %8, i32 0, i32 2
  %64 = load i32, ptr %7, align 4, !tbaa !9
  %65 = call noundef nonnull align 8 dereferenceable(8) ptr @_ZN20btAlignedObjectArrayIP10btSoftBodyEixEi(ptr noundef nonnull align 8 dereferenceable(25) %63, i32 noundef %64)
  %66 = load ptr, ptr %65, align 8, !tbaa !215
  %67 = getelementptr inbounds nuw %class.btSoftBody, ptr %66, i32 0, i32 51
  store i8 0, ptr %67, align 1, !tbaa !217
  br label %68

68:                                               ; preds = %62
  %69 = load i32, ptr %7, align 4, !tbaa !9
  %70 = add nsw i32 %69, 1
  store i32 %70, ptr %7, align 4, !tbaa !9
  br label %56, !llvm.loop !304

71:                                               ; preds = %61
  ret void
}