; Function Attrs: mustprogress uwtable
define dso_local void @_ZN34btDeformableMultiBodyDynamicsWorld35performDeformableCollisionDetectionEv(ptr noundef nonnull readonly align 8 captures(none) dereferenceable(1056) %0) local_unnamed_addr #4 align 2 {
  %2 = getelementptr inbounds nuw i8, ptr %0, i64 860
  %3 = load i32, ptr %2, align 4, !tbaa !142
  %4 = icmp sgt i32 %3, 0
  br i1 %4, label %.lr.ph, label %._crit_edge25

.lr.ph:                                           ; preds = %1
  %5 = getelementptr inbounds nuw i8, ptr %0, i64 872
  %6 = load ptr, ptr %5, align 8, !tbaa !141
  %wide.trip.count = zext nneg i32 %3 to i64
  br label %8

.preheader16.lr.ph:                               ; preds = %8
  %7 = getelementptr inbounds nuw i8, ptr %0, i64 872
  br label %.preheader16

8:                                                ; preds = %.lr.ph, %8
  %indvars.iv = phi i64 [ 0, %.lr.ph ], [ %indvars.iv.next, %8 ]
  %9 = getelementptr inbounds nuw ptr, ptr %6, i64 %indvars.iv
  %10 = load ptr, ptr %9, align 8, !tbaa !232
  %11 = getelementptr inbounds nuw i8, ptr %10, i64 1969
  store i8 1, ptr %11, align 1, !tbaa !234
  %indvars.iv.next = add nuw nsw i64 %indvars.iv, 1
  %exitcond.not = icmp eq i64 %indvars.iv.next, %wide.trip.count
  br i1 %exitcond.not, label %.preheader16.lr.ph, label %8, !llvm.loop !321

.preheader16:                                     ; preds = %.preheader16.lr.ph, %._crit_edge
  %12 = phi i32 [ %3, %.preheader16.lr.ph ], [ %18, %._crit_edge ]
  %indvars.iv28 = phi i64 [ 0, %.preheader16.lr.ph ], [ %indvars.iv.next29, %._crit_edge ]
  %13 = sext i32 %12 to i64
  %14 = icmp slt i64 %indvars.iv28, %13
  br i1 %14, label %.lr.ph21, label %._crit_edge

.preheader:                                       ; preds = %._crit_edge
  %15 = icmp sgt i32 %18, 0
  br i1 %15, label %.lr.ph24, label %._crit_edge25

.lr.ph24:                                         ; preds = %.preheader
  %16 = getelementptr inbounds nuw i8, ptr %0, i64 872
  %17 = load ptr, ptr %16, align 8, !tbaa !141
  %wide.trip.count37 = zext nneg i32 %18 to i64
  br label %28

._crit_edge.loopexit:                             ; preds = %.lr.ph21
  %.pre = sext i32 %25 to i64
  br label %._crit_edge

._crit_edge:                                      ; preds = %._crit_edge.loopexit, %.preheader16
  %.pre-phi = phi i64 [ %.pre, %._crit_edge.loopexit ], [ %13, %.preheader16 ]
  %18 = phi i32 [ %25, %._crit_edge.loopexit ], [ %12, %.preheader16 ]
  %indvars.iv.next29 = add nuw nsw i64 %indvars.iv28, 1
  %19 = icmp slt i64 %indvars.iv.next29, %.pre-phi
  br i1 %19, label %.preheader16, label %.preheader, !llvm.loop !322

.lr.ph21:                                         ; preds = %.preheader16, %.lr.ph21
  %indvars.iv30 = phi i64 [ %indvars.iv.next31, %.lr.ph21 ], [ %indvars.iv28, %.preheader16 ]
  %20 = load ptr, ptr %7, align 8, !tbaa !141
  %21 = getelementptr inbounds nuw ptr, ptr %20, i64 %indvars.iv28
  %22 = load ptr, ptr %21, align 8, !tbaa !232
  %23 = getelementptr inbounds nuw ptr, ptr %20, i64 %indvars.iv30
  %24 = load ptr, ptr %23, align 8, !tbaa !232
  tail call void @_ZN10btSoftBody23defaultCollisionHandlerEPS_(ptr noundef nonnull align 8 dereferenceable(2064) %22, ptr noundef %24)
  %indvars.iv.next31 = add nuw nsw i64 %indvars.iv30, 1
  %25 = load i32, ptr %2, align 4, !tbaa !142
  %26 = trunc nuw i64 %indvars.iv.next31 to i32
  %27 = icmp sgt i32 %25, %26
  br i1 %27, label %.lr.ph21, label %._crit_edge.loopexit, !llvm.loop !323

._crit_edge25:                                    ; preds = %28, %1, %.preheader
  ret void

28:                                               ; preds = %.lr.ph24, %28
  %indvars.iv34 = phi i64 [ 0, %.lr.ph24 ], [ %indvars.iv.next35, %28 ]
  %29 = getelementptr inbounds nuw ptr, ptr %17, i64 %indvars.iv34
  %30 = load ptr, ptr %29, align 8, !tbaa !232
  %31 = getelementptr inbounds nuw i8, ptr %30, i64 1969
  store i8 0, ptr %31, align 1, !tbaa !234
  %indvars.iv.next35 = add nuw nsw i64 %indvars.iv34, 1
  %exitcond38.not = icmp eq i64 %indvars.iv.next35, %wide.trip.count37
  br i1 %exitcond38.not, label %._crit_edge25, label %28, !llvm.loop !324
}